; Function Attrs: mustprogress nofree norecurse nosync nounwind willreturn memory(readwrite, inaccessiblemem: none) uwtable
define internal noundef i32 @H5T__vlen_mem_str_read(ptr readnone captures(none) %0, ptr noundef readonly captures(none) %1, ptr noundef writeonly captures(none) %2, i64 noundef %3) #9 {
  %5 = load i8, ptr @H5T_init_g, align 1, !tbaa !3, !range !7, !noundef !8
  %6 = trunc nuw i8 %5 to i1
  %7 = load i8, ptr @H5_libterm_g, align 1, !range !7
  %8 = trunc nuw i8 %7 to i1
  %9 = xor i1 %8, true
  %10 = select i1 %6, i1 true, i1 %9
  %11 = icmp ne i64 %3, 0
  %or.cond = and i1 %11, %10
  br i1 %or.cond, label %12, label %13, !prof !56

12:                                               ; preds = %4
  %.0.copyload = load ptr, ptr %1, align 1
  tail call void @llvm.memcpy.p0.p0.i64(ptr align 1 %2, ptr align 1 %.0.copyload, i64 %3, i1 false)
  br label %13

13:                                               ; preds = %12, %4
  ret i32 0
}